target datalayout = "e-m:e-p270:32:32-p271:32:32-p272:64:64-i64:64-i128:128-f80:128-n8:16:32:64-S128"
target triple = "x86_64-pc-linux-gnu"

%struct.SurfaceDataRasInfo = type { %struct.SurfaceDataBounds, ptr, i32, i32, i32, i32, ptr, ptr, ptr, ptr, ptr, ptr, i32, %union.anon.0 }
%struct.SurfaceDataBounds = type { i32, i32, i32, i32 }
%union.anon.0 = type { ptr, [56 x i8] }

; Function Attrs: nounwind uwtable
define hidden void @ThreeByteBgrNrstNbrTransformHelper(ptr noundef %0, ptr noundef %1, i32 noundef %2, i64 noundef %3, i64 noundef %4, i64 noundef %5, i64 noundef %6) #1 {
  %8 = alloca ptr, align 8
  %9 = alloca ptr, align 8
  %10 = alloca i32, align 4
  %11 = alloca i64, align 8
  %12 = alloca i64, align 8
  %13 = alloca i64, align 8
  %14 = alloca i64, align 8
  %15 = alloca ptr, align 8
  %16 = alloca i32, align 4
  %17 = alloca ptr, align 8
  %18 = alloca ptr, align 8
  store ptr %0, ptr %8, align 8
  store ptr %1, ptr %9, align 8
  store i32 %2, ptr %10, align 4
  store i64 %3, ptr %11, align 8
  store i64 %4, ptr %12, align 8
  store i64 %5, ptr %13, align 8
  store i64 %6, ptr %14, align 8
  %19 = load ptr, ptr %8, align 8
  %20 = getelementptr inbounds %struct.SurfaceDataRasInfo, ptr %19, i32 0, i32 1
  %21 = load ptr, ptr %20, align 8
  store ptr %21, ptr %15, align 8
  %22 = load ptr, ptr %8, align 8
  %23 = getelementptr inbounds %struct.SurfaceDataRasInfo, ptr %22, i32 0, i32 4
  %24 = load i32, ptr %23, align 8
  store i32 %24, ptr %16, align 4
  %25 = load ptr, ptr %9, align 8
  %26 = load i32, ptr %10, align 4
  %27 = sext i32 %26 to i64
  %28 = getelementptr inbounds i32, ptr %25, i64 %27
  store ptr %28, ptr %17, align 8
  %29 = load ptr, ptr %8, align 8
  %30 = getelementptr inbounds %struct.SurfaceDataRasInfo, ptr %29, i32 0, i32 0
  %31 = getelementptr inbounds %struct.SurfaceDataBounds, ptr %30, i32 0, i32 0
  %32 = load i32, ptr %31, align 8
  %33 = sext i32 %32 to i64
  %34 = shl i64 %33, 32
  %35 = load i64, ptr %11, align 8
  %36 = add nsw i64 %35, %34
  store i64 %36, ptr %11, align 8
  %37 = load ptr, ptr %8, align 8
  %38 = getelementptr inbounds %struct.SurfaceDataRasInfo, ptr %37, i32 0, i32 0
  %39 = getelementptr inbounds %struct.SurfaceDataBounds, ptr %38, i32 0, i32 1
  %40 = load i32, ptr %39, align 4
  %41 = sext i32 %40 to i64
  %42 = shl i64 %41, 32
  %43 = load i64, ptr %13, align 8
  %44 = add nsw i64 %43, %42
  store i64 %44, ptr %13, align 8
  br label %45

45:                                               ; preds = %49, %7
  %46 = load ptr, ptr %9, align 8
  %47 = load ptr, ptr %17, align 8
  %48 = icmp ult ptr %46, %47
  br i1 %48, label %49, label %107

49:                                               ; preds = %45
  %50 = load ptr, ptr %15, align 8
  %51 = ptrtoint ptr %50 to i64
  %52 = load i64, ptr %13, align 8
  %53 = ashr i64 %52, 32
  %54 = trunc i64 %53 to i32
  %55 = sext i32 %54 to i64
  %56 = load i32, ptr %16, align 4
  %57 = sext i32 %56 to i64
  %58 = mul nsw i64 %55, %57
  %59 = add nsw i64 %51, %58
  %60 = inttoptr i64 %59 to ptr
  store ptr %60, ptr %18, align 8
  %61 = load ptr, ptr %18, align 8
  %62 = load i64, ptr %11, align 8
  %63 = ashr i64 %62, 32
  %64 = trunc i64 %63 to i32
  %65 = mul nsw i32 3, %64
  %66 = add nsw i32 %65, 0
  %67 = sext i32 %66 to i64
  %68 = getelementptr inbounds i8, ptr %61, i64 %67
  %69 = load i8, ptr %68, align 1
  %70 = zext i8 %69 to i32
  %71 = shl i32 %70, 0
  %72 = load ptr, ptr %18, align 8
  %73 = load i64, ptr %11, align 8
  %74 = ashr i64 %73, 32
  %75 = trunc i64 %74 to i32
  %76 = mul nsw i32 3, %75
  %77 = add nsw i32 %76, 1
  %78 = sext i32 %77 to i64
  %79 = getelementptr inbounds i8, ptr %72, i64 %78
  %80 = load i8, ptr %79, align 1
  %81 = zext i8 %80 to i32
  %82 = shl i32 %81, 8
  %83 = or i32 %71, %82
  %84 = load ptr, ptr %18, align 8
  %85 = load i64, ptr %11, align 8
  %86 = ashr i64 %85, 32
  %87 = trunc i64 %86 to i32
  %88 = mul nsw i32 3, %87
  %89 = add nsw i32 %88, 2
  %90 = sext i32 %89 to i64
  %91 = getelementptr inbounds i8, ptr %84, i64 %90
  %92 = load i8, ptr %91, align 1
  %93 = zext i8 %92 to i32
  %94 = shl i32 %93, 16
  %95 = or i32 %83, %94
  %96 = or i32 %95, -16777216
  %97 = load ptr, ptr %9, align 8
  %98 = getelementptr inbounds i32, ptr %97, i64 0
  store i32 %96, ptr %98, align 4
  %99 = load ptr, ptr %9, align 8
  %100 = getelementptr inbounds i32, ptr %99, i32 1
  store ptr %100, ptr %9, align 8
  %101 = load i64, ptr %12, align 8
  %102 = load i64, ptr %11, align 8
  %103 = add nsw i64 %102, %101
  store i64 %103, ptr %11, align 8
  %104 = load i64, ptr %14, align 8
  %105 = load i64, ptr %13, align 8
  %106 = add nsw i64 %105, %104
  store i64 %106, ptr %13, align 8
  br label %45, !llvm.loop !68

107:                                              ; preds = %45
  ret void
}