; Function Attrs: nofree norecurse nosync nounwind memory(readwrite, inaccessiblemem: none) uwtable
define hidden void @ThreeByteBgrNrstNbrTransformHelper(ptr nocapture noundef readonly %0, ptr noundef writeonly %1, i32 noundef %2, i64 noundef %3, i64 noundef %4, i64 noundef %5, i64 noundef %6) #1 {
  %8 = sext i32 %2 to i64
  %9 = getelementptr inbounds i32, ptr %1, i64 %8
  %10 = icmp sgt i32 %2, 0
  br i1 %10, label %.lr.ph, label %._crit_edge

.lr.ph:                                           ; preds = %7
  %11 = getelementptr inbounds i8, ptr %0, i64 4
  %12 = load i32, ptr %11, align 4
  %13 = sext i32 %12 to i64
  %14 = shl nsw i64 %13, 32
  %15 = add nsw i64 %14, %5
  %16 = load i32, ptr %0, align 8
  %17 = sext i32 %16 to i64
  %18 = shl nsw i64 %17, 32
  %19 = add nsw i64 %18, %3
  %20 = getelementptr inbounds i8, ptr %0, i64 32
  %21 = load i32, ptr %20, align 8
  %22 = getelementptr inbounds i8, ptr %0, i64 16
  %23 = load ptr, ptr %22, align 8
  %24 = ptrtoint ptr %23 to i64
  %25 = sext i32 %21 to i64
  br label %26

26:                                               ; preds = %.lr.ph, %26
  %.028 = phi ptr [ %1, %.lr.ph ], [ %42, %26 ]
  %.02427 = phi i64 [ %19, %.lr.ph ], [ %43, %26 ]
  %.02526 = phi i64 [ %15, %.lr.ph ], [ %44, %26 ]
  %27 = ashr i64 %.02526, 32
  %28 = mul nsw i64 %27, %25
  %29 = add nsw i64 %28, %24
  %30 = inttoptr i64 %29 to ptr
  %31 = lshr i64 %.02427, 32
  %sext = mul i64 %31, 12884901888
  %32 = ashr exact i64 %sext, 32
  %33 = getelementptr inbounds i8, ptr %30, i64 %32
  %34 = load i16, ptr %33, align 1
  %35 = zext i16 %34 to i32
  %36 = getelementptr i8, ptr %33, i64 2
  %37 = load i8, ptr %36, align 1
  %38 = zext i8 %37 to i32
  %39 = shl nuw nsw i32 %38, 16
  %40 = or disjoint i32 %39, %35
  %41 = or disjoint i32 %40, -16777216
  store i32 %41, ptr %.028, align 4
  %42 = getelementptr inbounds i8, ptr %.028, i64 4
  %43 = add nsw i64 %.02427, %4
  %44 = add nsw i64 %.02526, %6
  %45 = icmp ult ptr %42, %9
  br i1 %45, label %26, label %._crit_edge, !llvm.loop !68

._crit_edge:                                      ; preds = %26, %7
  ret void
}